; Function Attrs: mustprogress uwtable
define void @_ZNK4cvc58internal8TypeNode12getRangeTypeEv(ptr dead_on_unwind noalias writable sret(%"class.cvc5::internal::TypeNode") align 8 %0, ptr noundef nonnull readonly align 8 captures(none) dereferenceable(8) %1) local_unnamed_addr #4 align 2 {
  %3 = load ptr, ptr %1, align 8, !tbaa !3
  %4 = getelementptr inbounds nuw i8, ptr %3, i64 8
  %5 = load i64, ptr %4, align 8
  %6 = and i64 %5, 1023
  %7 = icmp eq i64 %6, 222
  br i1 %7, label %8, label %11

8:                                                ; preds = %2
  %9 = getelementptr inbounds nuw i8, ptr %3, i64 16
  %10 = load ptr, ptr %9, align 8, !tbaa !28
  tail call void @_ZN4cvc58internal11NodeManager11booleanTypeEv(ptr dead_on_unwind writable sret(%"class.cvc5::internal::TypeNode") align 8 %0, ptr noundef nonnull align 8 dereferenceable(3560) %10)
  br label %_ZNK4cvc58internal8TypeNodeixEi.exit

11:                                               ; preds = %2
  %12 = trunc i64 %5 to i32
  %13 = and i32 %12, 1023
  %14 = icmp eq i32 %13, 1023
  %15 = select i1 %14, i32 -1, i32 %13
  %16 = tail call noundef i32 @_ZN4cvc58internal4kind10metaKindOfENS1_6Kind_tE(i32 noundef %15)
  %17 = icmp eq i32 %16, 2
  %18 = load i64, ptr %4, align 8
  %19 = lshr i64 %18, 32
  %20 = and i64 %19, 67108863
  tail call void @llvm.experimental.noalias.scope.decl(metadata !156)
  %21 = load ptr, ptr %1, align 8, !tbaa !3, !noalias !156
  %22 = getelementptr inbounds nuw i8, ptr %21, i64 8
  %23 = load i64, ptr %22, align 8, !noalias !156
  %24 = trunc i64 %23 to i32
  %25 = and i32 %24, 1023
  %26 = icmp eq i32 %25, 1023
  %27 = select i1 %26, i32 -1, i32 %25
  %28 = tail call noundef i32 @_ZN4cvc58internal4kind10metaKindOfENS1_6Kind_tE(i32 noundef %27), !noalias !156
  %29 = icmp eq i32 %28, 2
  %30 = zext i1 %29 to i64
  %31 = select i1 %17, i64 -2, i64 -1
  %32 = add nsw i64 %31, %20
  %spec.select.i.i = add nsw i64 %32, %30
  %33 = getelementptr inbounds nuw i8, ptr %21, i64 24
  %34 = getelementptr inbounds [0 x ptr], ptr %33, i64 0, i64 %spec.select.i.i
  %35 = load ptr, ptr %34, align 8, !tbaa !32, !noalias !156
  store ptr %35, ptr %0, align 8, !tbaa !3, !alias.scope !156
  %36 = load i64, ptr %35, align 8, !noalias !156
  %37 = lshr i64 %36, 40
  %38 = trunc nuw nsw i64 %37 to i32
  %39 = and i32 %38, 1048575
  %40 = icmp samesign ult i32 %39, 1048574
  br i1 %40, label %41, label %46, !prof !27

41:                                               ; preds = %11
  %42 = add i64 %36, 1099511627776
  %43 = and i64 %42, 1152920405095219200
  %44 = and i64 %36, -1152920405095219201
  %45 = or disjoint i64 %43, %44
  store i64 %45, ptr %35, align 8, !noalias !156
  br label %_ZNK4cvc58internal8TypeNodeixEi.exit

46:                                               ; preds = %11
  %47 = icmp eq i32 %39, 1048574
  br i1 %47, label %48, label %_ZNK4cvc58internal8TypeNodeixEi.exit, !prof !9

48:                                               ; preds = %46
  %49 = or i64 %36, 1152920405095219200
  store i64 %49, ptr %35, align 8, !noalias !156
  tail call void @_ZN4cvc58internal4expr9NodeValue20markRefCountMaxedOutEv(ptr noundef nonnull align 8 dereferenceable(24) %35), !noalias !156
  br label %_ZNK4cvc58internal8TypeNodeixEi.exit

_ZNK4cvc58internal8TypeNodeixEi.exit:             ; preds = %48, %46, %41, %8
  ret void
}